target datalayout = "e-m:e-p270:32:32-p271:32:32-p272:64:64-i64:64-i128:128-f80:128-n8:16:32:64-S128"
target triple = "x86_64-pc-linux-gnu"

%struct.HWDevice = type { ptr, i32, ptr }

@nb_hw_devices = internal global i32 0, align 4
@hw_devices = internal global ptr null, align 8

; Function Attrs: nounwind uwtable
define ptr @hw_device_get_by_type(i32 noundef %0) #0 {
  %2 = alloca ptr, align 8
  %3 = alloca i32, align 4
  %4 = alloca ptr, align 8
  %5 = alloca i32, align 4
  %6 = alloca i32, align 4
  store i32 %0, ptr %3, align 4, !tbaa !4
  call void @llvm.lifetime.start.p0(i64 8, ptr %4) #5
  store ptr null, ptr %4, align 8, !tbaa !8
  call void @llvm.lifetime.start.p0(i64 4, ptr %5) #5
  store i32 0, ptr %5, align 4, !tbaa !4
  br label %7

7:                                                ; preds = %32, %1
  %8 = load i32, ptr %5, align 4, !tbaa !4
  %9 = load i32, ptr @nb_hw_devices, align 4, !tbaa !4
  %10 = icmp slt i32 %8, %9
  br i1 %10, label %11, label %35

11:                                               ; preds = %7
  %12 = load ptr, ptr @hw_devices, align 8, !tbaa !11
  %13 = load i32, ptr %5, align 4, !tbaa !4
  %14 = sext i32 %13 to i64
  %15 = getelementptr inbounds ptr, ptr %12, i64 %14
  %16 = load ptr, ptr %15, align 8, !tbaa !8
  %17 = getelementptr inbounds nuw %struct.HWDevice, ptr %16, i32 0, i32 1
  %18 = load i32, ptr %17, align 8, !tbaa !14
  %19 = load i32, ptr %3, align 4, !tbaa !4
  %20 = icmp eq i32 %18, %19
  br i1 %20, label %21, label %31

21:                                               ; preds = %11
  %22 = load ptr, ptr %4, align 8, !tbaa !8
  %23 = icmp ne ptr %22, null
  br i1 %23, label %24, label %25

24:                                               ; preds = %21
  store ptr null, ptr %2, align 8
  store i32 1, ptr %6, align 4
  br label %37

25:                                               ; preds = %21
  %26 = load ptr, ptr @hw_devices, align 8, !tbaa !11
  %27 = load i32, ptr %5, align 4, !tbaa !4
  %28 = sext i32 %27 to i64
  %29 = getelementptr inbounds ptr, ptr %26, i64 %28
  %30 = load ptr, ptr %29, align 8, !tbaa !8
  store ptr %30, ptr %4, align 8, !tbaa !8
  br label %31

31:                                               ; preds = %25, %11
  br label %32

32:                                               ; preds = %31
  %33 = load i32, ptr %5, align 4, !tbaa !4
  %34 = add nsw i32 %33, 1
  store i32 %34, ptr %5, align 4, !tbaa !4
  br label %7, !llvm.loop !18

35:                                               ; preds = %7
  %36 = load ptr, ptr %4, align 8, !tbaa !8
  store ptr %36, ptr %2, align 8
  store i32 1, ptr %6, align 4
  br label %37

37:                                               ; preds = %35, %24
  call void @llvm.lifetime.end.p0(i64 4, ptr %5) #5
  call void @llvm.lifetime.end.p0(i64 8, ptr %4) #5
  %38 = load ptr, ptr %2, align 8
  ret ptr %38
}