; Function Attrs: nofree norecurse nosync nounwind memory(read, inaccessiblemem: none) uwtable
define ptr @hw_device_get_by_type(i32 noundef %0) local_unnamed_addr #0 {
  %2 = load i32, ptr @nb_hw_devices, align 4, !tbaa !4
  %3 = icmp sgt i32 %2, 0
  br i1 %3, label %.lr.ph, label %._crit_edge

.lr.ph:                                           ; preds = %1
  %4 = load ptr, ptr @hw_devices, align 8, !tbaa !8
  %wide.trip.count = zext nneg i32 %2 to i64
  br label %5

5:                                                ; preds = %.lr.ph, %12
  %indvars.iv = phi i64 [ 0, %.lr.ph ], [ %indvars.iv.next, %12 ]
  %.079 = phi ptr [ null, %.lr.ph ], [ %.1, %12 ]
  %6 = getelementptr inbounds nuw ptr, ptr %4, i64 %indvars.iv
  %7 = load ptr, ptr %6, align 8, !tbaa !12
  %8 = getelementptr inbounds nuw i8, ptr %7, i64 8
  %9 = load i32, ptr %8, align 8, !tbaa !14
  %10 = icmp eq i32 %9, %0
  br i1 %10, label %11, label %12

11:                                               ; preds = %5
  %.not = icmp eq ptr %.079, null
  br i1 %.not, label %12, label %._crit_edge

12:                                               ; preds = %11, %5
  %.1 = phi ptr [ %.079, %5 ], [ %7, %11 ]
  %indvars.iv.next = add nuw nsw i64 %indvars.iv, 1
  %exitcond.not = icmp eq i64 %indvars.iv.next, %wide.trip.count
  br i1 %exitcond.not, label %._crit_edge, label %5, !llvm.loop !18

._crit_edge:                                      ; preds = %11, %12, %1
  %.08 = phi ptr [ null, %1 ], [ %.1, %12 ], [ null, %11 ]
  ret ptr %.08
}